; Function Attrs: nounwind uwtable
define dso_local void @zrevrangebylexCommand(ptr noundef %0) local_unnamed_addr #0 {
  %2 = alloca %struct.zrange_result_handler, align 8
  call void @llvm.lifetime.start.p0(i64 80, ptr nonnull %2) #18
  call void @llvm.memset.p0.i64(ptr noundef nonnull align 8 dereferenceable(80) %2, i8 0, i64 48, i1 false)
  %3 = getelementptr inbounds nuw i8, ptr %2, i64 8
  store ptr %0, ptr %3, align 8, !tbaa !194
  %4 = getelementptr inbounds nuw i8, ptr %2, i64 48
  store ptr @zrangeResultBeginClient, ptr %4, align 8, !tbaa !196
  %5 = getelementptr inbounds nuw i8, ptr %2, i64 56
  store ptr @zrangeResultFinalizeClient, ptr %5, align 8, !tbaa !197
  %6 = getelementptr inbounds nuw i8, ptr %2, i64 64
  store ptr @zrangeResultEmitCBufferToClient, ptr %6, align 8, !tbaa !199
  %7 = getelementptr inbounds nuw i8, ptr %2, i64 72
  store ptr @zrangeResultEmitLongLongToClient, ptr %7, align 8, !tbaa !198
  call void @zrangeGenericCommand(ptr noundef nonnull %2, i32 noundef 1, i32 noundef 0, i32 noundef 3, i32 noundef 2)
  call void @llvm.lifetime.end.p0(i64 80, ptr nonnull %2) #18
  ret void
}